; Function Attrs: mustprogress uwtable
define void @_ZNK10open_spiel14coordinated_mp12PenniesState14ActionToStringB5cxx11Eil(ptr dead_on_unwind noalias writable sret(%"class.std::__cxx11::basic_string") align 8 %0, ptr noundef nonnull align 8 dereferenceable(72) %1, i32 %2, i64 noundef %3) unnamed_addr #3 align 2 personality ptr @__gxx_personality_v0 {
  %5 = alloca %"class.std::allocator", align 1
  %6 = alloca %"class.std::allocator", align 1
  %7 = alloca %"class.std::__cxx11::basic_string", align 8
  %8 = alloca %"class.std::allocator", align 1
  %9 = alloca %"class.std::allocator", align 1
  %10 = alloca %"class.std::allocator", align 1
  %11 = alloca %"class.std::__cxx11::basic_string", align 8
  %12 = alloca %"class.std::allocator", align 1
  %13 = load ptr, ptr %1, align 8
  %14 = getelementptr inbounds nuw i8, ptr %13, i64 128
  %15 = load ptr, ptr %14, align 8
  %16 = tail call noundef zeroext i1 %15(ptr noundef nonnull align 8 dereferenceable(60) %1)
  br i1 %16, label %17, label %37

17:                                               ; preds = %4
  switch i64 %3, label %30 [
    i64 0, label %18
    i64 1, label %24
  ]

18:                                               ; preds = %17
  call void @_ZNSaIcEC1Ev(ptr noundef nonnull align 1 dereferenceable(1) %5) #24
  %19 = invoke noundef ptr @_ZNSt7__cxx1112basic_stringIcSt11char_traitsIcESaIcEE13_M_local_dataEv(ptr noundef nonnull align 8 dereferenceable(32) %0)
          to label %.noexc unwind label %22

.noexc:                                           ; preds = %18
  invoke void @_ZNSt7__cxx1112basic_stringIcSt11char_traitsIcESaIcEE12_Alloc_hiderC1EPcRKS3_(ptr noundef nonnull align 8 dereferenceable(32) %0, ptr noundef %19, ptr noundef nonnull align 1 dereferenceable(1) %5)
          to label %.noexc16 unwind label %22

.noexc16:                                         ; preds = %.noexc
  invoke void @_ZNSt7__cxx1112basic_stringIcSt11char_traitsIcESaIcEE12_M_constructIPKcEEvT_S8_St20forward_iterator_tag(ptr noundef nonnull align 8 dereferenceable(32) %0, ptr noundef nonnull @.str.19, ptr noundef nonnull getelementptr inbounds nuw (i8, ptr @.str.19, i64 3))
          to label %_ZNSt7__cxx1112basic_stringIcSt11char_traitsIcESaIcEEC2IS3_EEPKcRKS3_.exit unwind label %20

20:                                               ; preds = %.noexc16
  %21 = landingpad { ptr, i32 }
          cleanup
  call void @_ZNSaIcED2Ev(ptr noundef nonnull align 8 dereferenceable(32) %0) #24
  br label %.body

22:                                               ; preds = %.noexc, %18
  %23 = landingpad { ptr, i32 }
          cleanup
  br label %.body

24:                                               ; preds = %17
  call void @_ZNSaIcEC1Ev(ptr noundef nonnull align 1 dereferenceable(1) %6) #24
  %25 = invoke noundef ptr @_ZNSt7__cxx1112basic_stringIcSt11char_traitsIcESaIcEE13_M_local_dataEv(ptr noundef nonnull align 8 dereferenceable(32) %0)
          to label %.noexc17 unwind label %28

.noexc17:                                         ; preds = %24
  invoke void @_ZNSt7__cxx1112basic_stringIcSt11char_traitsIcESaIcEE12_Alloc_hiderC1EPcRKS3_(ptr noundef nonnull align 8 dereferenceable(32) %0, ptr noundef %25, ptr noundef nonnull align 1 dereferenceable(1) %6)
          to label %.noexc18 unwind label %28

.noexc18:                                         ; preds = %.noexc17
  invoke void @_ZNSt7__cxx1112basic_stringIcSt11char_traitsIcESaIcEE12_M_constructIPKcEEvT_S8_St20forward_iterator_tag(ptr noundef nonnull align 8 dereferenceable(32) %0, ptr noundef nonnull @.str.20, ptr noundef nonnull getelementptr inbounds nuw (i8, ptr @.str.20, i64 6))
          to label %_ZNSt7__cxx1112basic_stringIcSt11char_traitsIcESaIcEEC2IS3_EEPKcRKS3_.exit unwind label %26

26:                                               ; preds = %.noexc18
  %27 = landingpad { ptr, i32 }
          cleanup
  call void @_ZNSaIcED2Ev(ptr noundef nonnull align 8 dereferenceable(32) %0) #24
  br label %.body

28:                                               ; preds = %.noexc17, %24
  %29 = landingpad { ptr, i32 }
          cleanup
  br label %.body

30:                                               ; preds = %17
  call void @_ZNSaIcEC1Ev(ptr noundef nonnull align 1 dereferenceable(1) %8) #24
  invoke void @_ZNSt7__cxx1112basic_stringIcSt11char_traitsIcESaIcEEC2IS3_EEPKcRKS3_(ptr noundef nonnull align 8 dereferenceable(32) %7, ptr noundef nonnull @.str.18, ptr noundef nonnull align 1 dereferenceable(1) %8)
          to label %31 unwind label %33

31:                                               ; preds = %30
  invoke void @_ZN10open_spiel15SpielFatalErrorERKNSt7__cxx1112basic_stringIcSt11char_traitsIcESaIcEEE(ptr noundef nonnull align 8 dereferenceable(32) %7) #23
          to label %32 unwind label %35

32:                                               ; preds = %31
  unreachable

33:                                               ; preds = %30
  %34 = landingpad { ptr, i32 }
          cleanup
  br label %.body

35:                                               ; preds = %31
  %36 = landingpad { ptr, i32 }
          cleanup
  call void @_ZNSt7__cxx1112basic_stringIcSt11char_traitsIcESaIcEED1Ev(ptr noundef nonnull align 8 dereferenceable(32) %7) #24
  br label %.body

37:                                               ; preds = %4
  switch i64 %3, label %50 [
    i64 0, label %38
    i64 1, label %44
  ]

38:                                               ; preds = %37
  call void @_ZNSaIcEC1Ev(ptr noundef nonnull align 1 dereferenceable(1) %9) #24
  %39 = invoke noundef ptr @_ZNSt7__cxx1112basic_stringIcSt11char_traitsIcESaIcEE13_M_local_dataEv(ptr noundef nonnull align 8 dereferenceable(32) %0)
          to label %.noexc22 unwind label %42

.noexc22:                                         ; preds = %38
  invoke void @_ZNSt7__cxx1112basic_stringIcSt11char_traitsIcESaIcEE12_Alloc_hiderC1EPcRKS3_(ptr noundef nonnull align 8 dereferenceable(32) %0, ptr noundef %39, ptr noundef nonnull align 1 dereferenceable(1) %9)
          to label %.noexc23 unwind label %42

.noexc23:                                         ; preds = %.noexc22
  invoke void @_ZNSt7__cxx1112basic_stringIcSt11char_traitsIcESaIcEE12_M_constructIPKcEEvT_S8_St20forward_iterator_tag(ptr noundef nonnull align 8 dereferenceable(32) %0, ptr noundef nonnull @.str.21, ptr noundef nonnull getelementptr inbounds nuw (i8, ptr @.str.21, i64 5))
          to label %_ZNSt7__cxx1112basic_stringIcSt11char_traitsIcESaIcEEC2IS3_EEPKcRKS3_.exit unwind label %40

40:                                               ; preds = %.noexc23
  %41 = landingpad { ptr, i32 }
          cleanup
  call void @_ZNSaIcED2Ev(ptr noundef nonnull align 8 dereferenceable(32) %0) #24
  br label %.body

42:                                               ; preds = %.noexc22, %38
  %43 = landingpad { ptr, i32 }
          cleanup
  br label %.body

44:                                               ; preds = %37
  call void @_ZNSaIcEC1Ev(ptr noundef nonnull align 1 dereferenceable(1) %10) #24
  %45 = invoke noundef ptr @_ZNSt7__cxx1112basic_stringIcSt11char_traitsIcESaIcEE13_M_local_dataEv(ptr noundef nonnull align 8 dereferenceable(32) %0)
          to label %.noexc27 unwind label %48

.noexc27:                                         ; preds = %44
  invoke void @_ZNSt7__cxx1112basic_stringIcSt11char_traitsIcESaIcEE12_Alloc_hiderC1EPcRKS3_(ptr noundef nonnull align 8 dereferenceable(32) %0, ptr noundef %45, ptr noundef nonnull align 1 dereferenceable(1) %10)
          to label %.noexc28 unwind label %48

.noexc28:                                         ; preds = %.noexc27
  invoke void @_ZNSt7__cxx1112basic_stringIcSt11char_traitsIcESaIcEE12_M_constructIPKcEEvT_S8_St20forward_iterator_tag(ptr noundef nonnull align 8 dereferenceable(32) %0, ptr noundef nonnull @.str.22, ptr noundef nonnull getelementptr inbounds nuw (i8, ptr @.str.22, i64 5))
          to label %_ZNSt7__cxx1112basic_stringIcSt11char_traitsIcESaIcEEC2IS3_EEPKcRKS3_.exit unwind label %46

46:                                               ; preds = %.noexc28
  %47 = landingpad { ptr, i32 }
          cleanup
  call void @_ZNSaIcED2Ev(ptr noundef nonnull align 8 dereferenceable(32) %0) #24
  br label %.body

48:                                               ; preds = %.noexc27, %44
  %49 = landingpad { ptr, i32 }
          cleanup
  br label %.body

50:                                               ; preds = %37
  call void @_ZNSaIcEC1Ev(ptr noundef nonnull align 1 dereferenceable(1) %12) #24
  invoke void @_ZNSt7__cxx1112basic_stringIcSt11char_traitsIcESaIcEEC2IS3_EEPKcRKS3_(ptr noundef nonnull align 8 dereferenceable(32) %11, ptr noundef nonnull @.str.18, ptr noundef nonnull align 1 dereferenceable(1) %12)
          to label %51 unwind label %53

51:                                               ; preds = %50
  invoke void @_ZN10open_spiel15SpielFatalErrorERKNSt7__cxx1112basic_stringIcSt11char_traitsIcESaIcEEE(ptr noundef nonnull align 8 dereferenceable(32) %11) #23
          to label %52 unwind label %55

52:                                               ; preds = %51
  unreachable

53:                                               ; preds = %50
  %54 = landingpad { ptr, i32 }
          cleanup
  br label %.body

55:                                               ; preds = %51
  %56 = landingpad { ptr, i32 }
          cleanup
  call void @_ZNSt7__cxx1112basic_stringIcSt11char_traitsIcESaIcEED1Ev(ptr noundef nonnull align 8 dereferenceable(32) %11) #24
  br label %.body

_ZNSt7__cxx1112basic_stringIcSt11char_traitsIcESaIcEEC2IS3_EEPKcRKS3_.exit: ; preds = %.noexc28, %.noexc23, %.noexc18, %.noexc16
  %.sink = phi ptr [ %5, %.noexc16 ], [ %6, %.noexc18 ], [ %9, %.noexc23 ], [ %10, %.noexc28 ]
  call void @_ZNSaIcED1Ev(ptr noundef nonnull align 1 dereferenceable(1) %.sink) #24
  ret void

.body:                                            ; preds = %53, %55, %48, %46, %42, %40, %33, %35, %28, %26, %22, %20
  %.sink32 = phi ptr [ %5, %20 ], [ %5, %22 ], [ %6, %26 ], [ %6, %28 ], [ %8, %35 ], [ %8, %33 ], [ %9, %40 ], [ %9, %42 ], [ %10, %46 ], [ %10, %48 ], [ %12, %55 ], [ %12, %53 ]
  %.pn14 = phi { ptr, i32 } [ %21, %20 ], [ %23, %22 ], [ %27, %26 ], [ %29, %28 ], [ %36, %35 ], [ %34, %33 ], [ %41, %40 ], [ %43, %42 ], [ %47, %46 ], [ %49, %48 ], [ %56, %55 ], [ %54, %53 ]
  call void @_ZNSaIcED1Ev(ptr noundef nonnull align 1 dereferenceable(1) %.sink32) #24
  resume { ptr, i32 } %.pn14
}